target datalayout = "e-m:e-p270:32:32-p271:32:32-p272:64:64-i64:64-i128:128-f80:128-n8:16:32:64-S128"
target triple = "x86_64-pc-linux-gnu"

%struct.pai_s = type { ptr, ptr, ptr, ptr, ptr, ptr, ptr }
%struct.edata_s = type { i64, ptr, %union.anon, ptr, i64, %union.anon.0, %union.anon.2 }
%union.anon = type { i64 }
%union.anon.0 = type { %union.anon.1 }
%union.anon.1 = type { %struct.edata_heap_link_t }
%struct.edata_heap_link_t = type { %struct.phn_link_s }
%struct.phn_link_s = type { ptr, ptr, ptr }
%union.anon.2 = type { %struct.slab_data_s }
%struct.slab_data_s = type { [8 x i64] }
%struct.anon = type { ptr, ptr }
%struct.edata_list_active_t = type { %struct.anon.4 }
%struct.anon.4 = type { ptr }

; Function Attrs: inlinehint nounwind uwtable
define internal void @edata_list_active_append(ptr noundef %0, ptr noundef %1) #2 {
  %3 = alloca ptr, align 8
  %4 = alloca ptr, align 8
  store ptr %0, ptr %3, align 8, !tbaa !13
  store ptr %1, ptr %4, align 8, !tbaa !20
  br label %5

5:                                                ; preds = %2
  %6 = load ptr, ptr %4, align 8, !tbaa !20
  %7 = load ptr, ptr %4, align 8, !tbaa !20
  %8 = getelementptr inbounds nuw %struct.edata_s, ptr %7, i32 0, i32 5
  %9 = getelementptr inbounds nuw %struct.anon, ptr %8, i32 0, i32 0
  store ptr %6, ptr %9, align 8, !tbaa !26
  %10 = load ptr, ptr %4, align 8, !tbaa !20
  %11 = load ptr, ptr %4, align 8, !tbaa !20
  %12 = getelementptr inbounds nuw %struct.edata_s, ptr %11, i32 0, i32 5
  %13 = getelementptr inbounds nuw %struct.anon, ptr %12, i32 0, i32 1
  store ptr %10, ptr %13, align 8, !tbaa !26
  br label %14

14:                                               ; preds = %5
  br label %15

15:                                               ; preds = %14
  %16 = load ptr, ptr %3, align 8, !tbaa !13
  %17 = getelementptr inbounds nuw %struct.edata_list_active_t, ptr %16, i32 0, i32 0
  %18 = getelementptr inbounds nuw %struct.anon.4, ptr %17, i32 0, i32 0
  %19 = load ptr, ptr %18, align 8, !tbaa !27
  %20 = icmp eq ptr %19, null
  br i1 %20, label %77, label %21

21:                                               ; preds = %15
  br label %22

22:                                               ; preds = %21
  %23 = load ptr, ptr %3, align 8, !tbaa !13
  %24 = getelementptr inbounds nuw %struct.edata_list_active_t, ptr %23, i32 0, i32 0
  %25 = getelementptr inbounds nuw %struct.anon.4, ptr %24, i32 0, i32 0
  %26 = load ptr, ptr %25, align 8, !tbaa !27
  %27 = getelementptr inbounds nuw %struct.edata_s, ptr %26, i32 0, i32 5
  %28 = getelementptr inbounds nuw %struct.anon, ptr %27, i32 0, i32 1
  %29 = load ptr, ptr %28, align 8, !tbaa !26
  %30 = load ptr, ptr %4, align 8, !tbaa !20
  %31 = getelementptr inbounds nuw %struct.edata_s, ptr %30, i32 0, i32 5
  %32 = getelementptr inbounds nuw %struct.anon, ptr %31, i32 0, i32 1
  %33 = load ptr, ptr %32, align 8, !tbaa !26
  %34 = getelementptr inbounds nuw %struct.edata_s, ptr %33, i32 0, i32 5
  %35 = getelementptr inbounds nuw %struct.anon, ptr %34, i32 0, i32 0
  store ptr %29, ptr %35, align 8, !tbaa !26
  %36 = load ptr, ptr %4, align 8, !tbaa !20
  %37 = getelementptr inbounds nuw %struct.edata_s, ptr %36, i32 0, i32 5
  %38 = getelementptr inbounds nuw %struct.anon, ptr %37, i32 0, i32 1
  %39 = load ptr, ptr %38, align 8, !tbaa !26
  %40 = load ptr, ptr %3, align 8, !tbaa !13
  %41 = getelementptr inbounds nuw %struct.edata_list_active_t, ptr %40, i32 0, i32 0
  %42 = getelementptr inbounds nuw %struct.anon.4, ptr %41, i32 0, i32 0
  %43 = load ptr, ptr %42, align 8, !tbaa !27
  %44 = getelementptr inbounds nuw %struct.edata_s, ptr %43, i32 0, i32 5
  %45 = getelementptr inbounds nuw %struct.anon, ptr %44, i32 0, i32 1
  store ptr %39, ptr %45, align 8, !tbaa !26
  %46 = load ptr, ptr %4, align 8, !tbaa !20
  %47 = getelementptr inbounds nuw %struct.edata_s, ptr %46, i32 0, i32 5
  %48 = getelementptr inbounds nuw %struct.anon, ptr %47, i32 0, i32 1
  %49 = load ptr, ptr %48, align 8, !tbaa !26
  %50 = getelementptr inbounds nuw %struct.edata_s, ptr %49, i32 0, i32 5
  %51 = getelementptr inbounds nuw %struct.anon, ptr %50, i32 0, i32 0
  %52 = load ptr, ptr %51, align 8, !tbaa !26
  %53 = load ptr, ptr %4, align 8, !tbaa !20
  %54 = getelementptr inbounds nuw %struct.edata_s, ptr %53, i32 0, i32 5
  %55 = getelementptr inbounds nuw %struct.anon, ptr %54, i32 0, i32 1
  store ptr %52, ptr %55, align 8, !tbaa !26
  %56 = load ptr, ptr %3, align 8, !tbaa !13
  %57 = getelementptr inbounds nuw %struct.edata_list_active_t, ptr %56, i32 0, i32 0
  %58 = getelementptr inbounds nuw %struct.anon.4, ptr %57, i32 0, i32 0
  %59 = load ptr, ptr %58, align 8, !tbaa !27
  %60 = load ptr, ptr %3, align 8, !tbaa !13
  %61 = getelementptr inbounds nuw %struct.edata_list_active_t, ptr %60, i32 0, i32 0
  %62 = getelementptr inbounds nuw %struct.anon.4, ptr %61, i32 0, i32 0
  %63 = load ptr, ptr %62, align 8, !tbaa !27
  %64 = getelementptr inbounds nuw %struct.edata_s, ptr %63, i32 0, i32 5
  %65 = getelementptr inbounds nuw %struct.anon, ptr %64, i32 0, i32 1
  %66 = load ptr, ptr %65, align 8, !tbaa !26
  %67 = getelementptr inbounds nuw %struct.edata_s, ptr %66, i32 0, i32 5
  %68 = getelementptr inbounds nuw %struct.anon, ptr %67, i32 0, i32 0
  store ptr %59, ptr %68, align 8, !tbaa !26
  %69 = load ptr, ptr %4, align 8, !tbaa !20
  %70 = load ptr, ptr %4, align 8, !tbaa !20
  %71 = getelementptr inbounds nuw %struct.edata_s, ptr %70, i32 0, i32 5
  %72 = getelementptr inbounds nuw %struct.anon, ptr %71, i32 0, i32 1
  %73 = load ptr, ptr %72, align 8, !tbaa !26
  %74 = getelementptr inbounds nuw %struct.edata_s, ptr %73, i32 0, i32 5
  %75 = getelementptr inbounds nuw %struct.anon, ptr %74, i32 0, i32 0
  store ptr %69, ptr %75, align 8, !tbaa !26
  br label %76

76:                                               ; preds = %22
  br label %77

77:                                               ; preds = %76, %15
  %78 = load ptr, ptr %4, align 8, !tbaa !20
  %79 = getelementptr inbounds nuw %struct.edata_s, ptr %78, i32 0, i32 5
  %80 = getelementptr inbounds nuw %struct.anon, ptr %79, i32 0, i32 0
  %81 = load ptr, ptr %80, align 8, !tbaa !26
  %82 = load ptr, ptr %3, align 8, !tbaa !13
  %83 = getelementptr inbounds nuw %struct.edata_list_active_t, ptr %82, i32 0, i32 0
  %84 = getelementptr inbounds nuw %struct.anon.4, ptr %83, i32 0, i32 0
  store ptr %81, ptr %84, align 8, !tbaa !27
  br label %85

85:                                               ; preds = %77
  ret void
}

; Function Attrs: inlinehint nounwind uwtable
define internal ptr @pai_alloc(ptr noundef %0, ptr noundef %1, i64 noundef %2, i64 noundef %3, i1 noundef zeroext %4, i1 noundef zeroext %5, i1 noundef zeroext %6, ptr noundef %7) #2 {
  %9 = alloca ptr, align 8
  %10 = alloca ptr, align 8
  %11 = alloca i64, align 8
  %12 = alloca i64, align 8
  %13 = alloca i8, align 1
  %14 = alloca i8, align 1
  %15 = alloca i8, align 1
  %16 = alloca ptr, align 8
  store ptr %0, ptr %9, align 8, !tbaa !4
  store ptr %1, ptr %10, align 8, !tbaa !9
  store i64 %2, ptr %11, align 8, !tbaa !11
  store i64 %3, ptr %12, align 8, !tbaa !11
  %17 = zext i1 %4 to i8
  store i8 %17, ptr %13, align 1, !tbaa !14
  %18 = zext i1 %5 to i8
  store i8 %18, ptr %14, align 1, !tbaa !14
  %19 = zext i1 %6 to i8
  store i8 %19, ptr %15, align 1, !tbaa !14
  store ptr %7, ptr %16, align 8, !tbaa !16
  %20 = load ptr, ptr %10, align 8, !tbaa !9
  %21 = getelementptr inbounds nuw %struct.pai_s, ptr %20, i32 0, i32 0
  %22 = load ptr, ptr %21, align 8, !tbaa !24
  %23 = load ptr, ptr %9, align 8, !tbaa !4
  %24 = load ptr, ptr %10, align 8, !tbaa !9
  %25 = load i64, ptr %11, align 8, !tbaa !11
  %26 = load i64, ptr %12, align 8, !tbaa !11
  %27 = load i8, ptr %13, align 1, !tbaa !14, !range !18, !noundef !19
  %28 = trunc i8 %27 to i1
  %29 = load i8, ptr %14, align 1, !tbaa !14, !range !18, !noundef !19
  %30 = trunc i8 %29 to i1
  %31 = load i8, ptr %15, align 1, !tbaa !14, !range !18, !noundef !19
  %32 = trunc i8 %31 to i1
  %33 = load ptr, ptr %16, align 8, !tbaa !16
  %34 = call ptr %22(ptr noundef %23, ptr noundef %24, i64 noundef %25, i64 noundef %26, i1 noundef zeroext %28, i1 noundef zeroext %30, i1 noundef zeroext %32, ptr noundef %33)
  ret ptr %34
}

; Function Attrs: nounwind uwtable
define hidden i64 @je_pai_alloc_batch_default(ptr noundef %0, ptr noundef %1, i64 noundef %2, i64 noundef %3, ptr noundef %4, i1 noundef zeroext %5, ptr noundef %6) #0 {
  %8 = alloca i64, align 8
  %9 = alloca ptr, align 8
  %10 = alloca ptr, align 8
  %11 = alloca i64, align 8
  %12 = alloca i64, align 8
  %13 = alloca ptr, align 8
  %14 = alloca i8, align 1
  %15 = alloca ptr, align 8
  %16 = alloca i64, align 8
  %17 = alloca i32, align 4
  %18 = alloca i8, align 1
  %19 = alloca ptr, align 8
  store ptr %0, ptr %9, align 8, !tbaa !4
  store ptr %1, ptr %10, align 8, !tbaa !9
  store i64 %2, ptr %11, align 8, !tbaa !11
  store i64 %3, ptr %12, align 8, !tbaa !11
  store ptr %4, ptr %13, align 8, !tbaa !13
  %20 = zext i1 %5 to i8
  store i8 %20, ptr %14, align 1, !tbaa !14
  store ptr %6, ptr %15, align 8, !tbaa !16
  call void @llvm.lifetime.start.p0(i64 8, ptr %16) #3
  store i64 0, ptr %16, align 8, !tbaa !11
  br label %21

21:                                               ; preds = %53, %7
  %22 = load i64, ptr %16, align 8, !tbaa !11
  %23 = load i64, ptr %12, align 8, !tbaa !11
  %24 = icmp ult i64 %22, %23
  br i1 %24, label %26, label %25

25:                                               ; preds = %21
  store i32 2, ptr %17, align 4
  br label %56

26:                                               ; preds = %21
  call void @llvm.lifetime.start.p0(i64 1, ptr %18) #3
  store i8 0, ptr %18, align 1, !tbaa !14
  call void @llvm.lifetime.start.p0(i64 8, ptr %19) #3
  %27 = load ptr, ptr %9, align 8, !tbaa !4
  %28 = load ptr, ptr %10, align 8, !tbaa !9
  %29 = load i64, ptr %11, align 8, !tbaa !11
  %30 = load i8, ptr %14, align 1, !tbaa !14, !range !18, !noundef !19
  %31 = trunc i8 %30 to i1
  %32 = call ptr @pai_alloc(ptr noundef %27, ptr noundef %28, i64 noundef %29, i64 noundef 4096, i1 noundef zeroext false, i1 noundef zeroext false, i1 noundef zeroext %31, ptr noundef %18)
  store ptr %32, ptr %19, align 8, !tbaa !20
  %33 = load i8, ptr %18, align 1, !tbaa !14, !range !18, !noundef !19
  %34 = trunc i8 %33 to i1
  %35 = zext i1 %34 to i32
  %36 = load ptr, ptr %15, align 8, !tbaa !16
  %37 = load i8, ptr %36, align 1, !tbaa !14, !range !18, !noundef !19
  %38 = trunc i8 %37 to i1
  %39 = zext i1 %38 to i32
  %40 = or i32 %39, %35
  %41 = icmp ne i32 %40, 0
  %42 = zext i1 %41 to i8
  store i8 %42, ptr %36, align 1, !tbaa !14
  %43 = load ptr, ptr %19, align 8, !tbaa !20
  %44 = icmp eq ptr %43, null
  br i1 %44, label %45, label %47

45:                                               ; preds = %26
  %46 = load i64, ptr %16, align 8, !tbaa !11
  store i64 %46, ptr %8, align 8
  store i32 1, ptr %17, align 4
  br label %50

47:                                               ; preds = %26
  %48 = load ptr, ptr %13, align 8, !tbaa !13
  %49 = load ptr, ptr %19, align 8, !tbaa !20
  call void @edata_list_active_append(ptr noundef %48, ptr noundef %49)
  store i32 0, ptr %17, align 4
  br label %50

50:                                               ; preds = %47, %45
  call void @llvm.lifetime.end.p0(i64 8, ptr %19) #3
  call void @llvm.lifetime.end.p0(i64 1, ptr %18) #3
  %51 = load i32, ptr %17, align 4
  switch i32 %51, label %56 [
    i32 0, label %52
  ]

52:                                               ; preds = %50
  br label %53

53:                                               ; preds = %52
  %54 = load i64, ptr %16, align 8, !tbaa !11
  %55 = add i64 %54, 1
  store i64 %55, ptr %16, align 8, !tbaa !11
  br label %21, !llvm.loop !22

56:                                               ; preds = %50, %25
  call void @llvm.lifetime.end.p0(i64 8, ptr %16) #3
  %57 = load i32, ptr %17, align 4
  switch i32 %57, label %62 [
    i32 2, label %58
    i32 1, label %60
  ]

58:                                               ; preds = %56
  %59 = load i64, ptr %12, align 8, !tbaa !11
  store i64 %59, ptr %8, align 8
  br label %60

60:                                               ; preds = %58, %56
  %61 = load i64, ptr %8, align 8
  ret i64 %61

62:                                               ; preds = %56
  unreachable
}