; Function Attrs: nounwind uwtable
define hidden i64 @je_pai_alloc_batch_default(ptr noundef %0, ptr noundef %1, i64 noundef %2, i64 noundef %3, ptr noundef captures(none) %4, i1 noundef zeroext %5, ptr noundef captures(none) %6) local_unnamed_addr #0 {
  %8 = alloca i8, align 1
  %.not2023.not = icmp eq i64 %3, 0
  br i1 %.not2023.not, label %.loopexit, label %.lr.ph

.lr.ph:                                           ; preds = %7, %33
  %.01724 = phi i64 [ %35, %33 ], [ 0, %7 ]
  call void @llvm.lifetime.start.p0(i64 1, ptr nonnull %8) #3
  store i8 0, ptr %8, align 1, !tbaa !4
  %9 = load ptr, ptr %1, align 8, !tbaa !8
  %10 = call ptr %9(ptr noundef %0, ptr noundef nonnull %1, i64 noundef %2, i64 noundef 4096, i1 noundef zeroext false, i1 noundef zeroext false, i1 noundef zeroext %5, ptr noundef nonnull %8) #3
  %11 = load i8, ptr %8, align 1, !tbaa !4, !range !11, !noundef !12
  %12 = load i8, ptr %6, align 1, !tbaa !4, !range !11, !noundef !12
  %13 = or i8 %12, %11
  store i8 %13, ptr %6, align 1, !tbaa !4
  %.not = icmp eq ptr %10, null
  br i1 %.not, label %.thread, label %14

.thread:                                          ; preds = %.lr.ph
  call void @llvm.lifetime.end.p0(i64 1, ptr nonnull %8) #3
  br label %.loopexit

14:                                               ; preds = %.lr.ph
  %15 = getelementptr inbounds nuw i8, ptr %10, i64 40
  store ptr %10, ptr %15, align 8, !tbaa !13
  %16 = getelementptr inbounds nuw i8, ptr %10, i64 48
  store ptr %10, ptr %16, align 8, !tbaa !13
  %17 = load ptr, ptr %4, align 8, !tbaa !14
  %18 = icmp eq ptr %17, null
  br i1 %18, label %33, label %19

19:                                               ; preds = %14
  %20 = getelementptr inbounds nuw i8, ptr %17, i64 48
  %21 = load ptr, ptr %20, align 8, !tbaa !13
  store ptr %21, ptr %15, align 8, !tbaa !13
  %22 = load ptr, ptr %4, align 8, !tbaa !14
  %23 = getelementptr inbounds nuw i8, ptr %22, i64 48
  store ptr %10, ptr %23, align 8, !tbaa !13
  %24 = load ptr, ptr %16, align 8, !tbaa !13
  %25 = getelementptr inbounds nuw i8, ptr %24, i64 40
  %26 = load ptr, ptr %25, align 8, !tbaa !13
  store ptr %26, ptr %16, align 8, !tbaa !13
  %27 = load ptr, ptr %4, align 8, !tbaa !14
  %28 = getelementptr inbounds nuw i8, ptr %27, i64 48
  %29 = load ptr, ptr %28, align 8, !tbaa !13
  %30 = getelementptr inbounds nuw i8, ptr %29, i64 40
  store ptr %27, ptr %30, align 8, !tbaa !13
  %31 = load ptr, ptr %16, align 8, !tbaa !13
  %32 = getelementptr inbounds nuw i8, ptr %31, i64 40
  store ptr %10, ptr %32, align 8, !tbaa !13
  %.pre.i = load ptr, ptr %15, align 8, !tbaa !13
  br label %33

33:                                               ; preds = %14, %19
  %34 = phi ptr [ %.pre.i, %19 ], [ %10, %14 ]
  store ptr %34, ptr %4, align 8, !tbaa !14
  call void @llvm.lifetime.end.p0(i64 1, ptr nonnull %8) #3
  %35 = add nuw i64 %.01724, 1
  %exitcond.not = icmp eq i64 %35, %3
  br i1 %exitcond.not, label %.loopexit, label %.lr.ph, !llvm.loop !18

.loopexit:                                        ; preds = %33, %7, %.thread
  %.01722 = phi i64 [ %.01724, %.thread ], [ 0, %7 ], [ %3, %33 ]
  %spec.select = call i64 @llvm.umin.i64(i64 %.01722, i64 %3)
  ret i64 %spec.select
}